; Function Attrs: nounwind uwtable
define internal noundef i32 @apply_option_parse_exclude(ptr noundef readonly captures(none) %0, ptr noundef %1, i32 noundef %2) #0 {
  %.not = icmp eq i32 %2, 0
  br i1 %.not, label %5, label %4

4:                                                ; preds = %3
  tail call void (ptr, i32, ptr, ...) @BUG_fl(ptr noundef nonnull @.str.180, i32 noundef 4893, ptr noundef nonnull @.str.270) #25
  unreachable

5:                                                ; preds = %3
  %6 = getelementptr inbounds nuw i8, ptr %0, i64 16
  %7 = load ptr, ptr %6, align 8, !tbaa !202
  %8 = getelementptr inbounds nuw i8, ptr %7, i64 176
  %9 = tail call ptr @string_list_append(ptr noundef nonnull %8, ptr noundef %1) #21
  %10 = getelementptr inbounds nuw i8, ptr %9, i64 8
  store ptr null, ptr %10, align 8, !tbaa !122
  ret i32 0
}